target datalayout = "e-m:e-p270:32:32-p271:32:32-p272:64:64-i64:64-i128:128-f80:128-n8:16:32:64-S128"
target triple = "x86_64-pc-linux-gnu"

%"struct.faiss::nndescent::Nhood" = type { %"class.std::mutex", %"class.std::vector", i32, %"class.std::vector.0", %"class.std::vector.0", %"class.std::vector.0", %"class.std::vector.0" }
%"class.std::mutex" = type { %"class.std::__mutex_base" }
%"class.std::__mutex_base" = type { %union.pthread_mutex_t }
%union.pthread_mutex_t = type { %struct.__pthread_mutex_s }
%struct.__pthread_mutex_s = type { i32, i32, i32, i32, i32, i16, i16, %struct.__pthread_internal_list }
%struct.__pthread_internal_list = type { ptr, ptr }
%"class.std::vector" = type { %"struct.std::_Vector_base" }
%"struct.std::_Vector_base" = type { %"struct.std::_Vector_base<faiss::nndescent::Neighbor, std::allocator<faiss::nndescent::Neighbor>>::_Vector_impl" }
%"struct.std::_Vector_base<faiss::nndescent::Neighbor, std::allocator<faiss::nndescent::Neighbor>>::_Vector_impl" = type { %"struct.std::_Vector_base<faiss::nndescent::Neighbor, std::allocator<faiss::nndescent::Neighbor>>::_Vector_impl_data" }
%"struct.std::_Vector_base<faiss::nndescent::Neighbor, std::allocator<faiss::nndescent::Neighbor>>::_Vector_impl_data" = type { ptr, ptr, ptr }
%"class.std::vector.0" = type { %"struct.std::_Vector_base.1" }
%"struct.std::_Vector_base.1" = type { %"struct.std::_Vector_base<int, std::allocator<int>>::_Vector_impl" }
%"struct.std::_Vector_base<int, std::allocator<int>>::_Vector_impl" = type { %"struct.std::_Vector_base<int, std::allocator<int>>::_Vector_impl_data" }
%"struct.std::_Vector_base<int, std::allocator<int>>::_Vector_impl_data" = type { ptr, ptr, ptr }
%"struct.faiss::nndescent::Neighbor" = type <{ i32, float, i8, [3 x i8] }>
%"struct.faiss::NNDescent" = type { i8, i32, i32, i32, i32, i32, i32, i32, i32, i32, %"class.std::vector.7", %"class.std::vector.0" }
%"class.std::vector.7" = type { %"struct.std::_Vector_base.8" }
%"struct.std::_Vector_base.8" = type { %"struct.std::_Vector_base<faiss::nndescent::Nhood, std::allocator<faiss::nndescent::Nhood>>::_Vector_impl" }
%"struct.std::_Vector_base<faiss::nndescent::Nhood, std::allocator<faiss::nndescent::Nhood>>::_Vector_impl" = type { %"struct.std::_Vector_base<faiss::nndescent::Nhood, std::allocator<faiss::nndescent::Nhood>>::_Vector_impl_data" }
%"struct.std::_Vector_base<faiss::nndescent::Nhood, std::allocator<faiss::nndescent::Nhood>>::_Vector_impl_data" = type { ptr, ptr, ptr }
%"struct.std::_Vector_base.13" = type { %"struct.std::_Vector_base<std::vector<int>, std::allocator<std::vector<int>>>::_Vector_impl" }
%"struct.std::_Vector_base<std::vector<int>, std::allocator<std::vector<int>>>::_Vector_impl" = type { %"struct.std::_Vector_base<std::vector<int>, std::allocator<std::vector<int>>>::_Vector_impl_data" }
%"struct.std::_Vector_base<std::vector<int>, std::allocator<std::vector<int>>>::_Vector_impl_data" = type { ptr, ptr, ptr }

; Function Attrs: mustprogress nounwind uwtable
define linkonce_odr noundef nonnull align 4 dereferenceable(9) ptr @_ZNSt6vectorIN5faiss9nndescent8NeighborESaIS2_EEixEm(ptr noundef nonnull align 8 dereferenceable(24) %0, i64 noundef %1) #1 comdat align 2 {
  %3 = alloca ptr, align 8
  %4 = alloca i64, align 8
  store ptr %0, ptr %3, align 8, !tbaa !29
  store i64 %1, ptr %4, align 8, !tbaa !33
  %5 = load ptr, ptr %3, align 8
  %6 = getelementptr inbounds nuw %"struct.std::_Vector_base", ptr %5, i32 0, i32 0
  %7 = getelementptr inbounds nuw %"struct.std::_Vector_base<faiss::nndescent::Neighbor, std::allocator<faiss::nndescent::Neighbor>>::_Vector_impl_data", ptr %6, i32 0, i32 0
  %8 = load ptr, ptr %7, align 8, !tbaa !42
  %9 = load i64, ptr %4, align 8, !tbaa !33
  %10 = getelementptr inbounds nuw %"struct.faiss::nndescent::Neighbor", ptr %8, i64 %9
  ret ptr %10
}

; Function Attrs: mustprogress nounwind uwtable
define linkonce_odr noundef i64 @_ZNKSt6vectorIN5faiss9nndescent8NeighborESaIS2_EE4sizeEv(ptr noundef nonnull align 8 dereferenceable(24) %0) #1 comdat align 2 {
  %2 = alloca ptr, align 8
  store ptr %0, ptr %2, align 8, !tbaa !29
  %3 = load ptr, ptr %2, align 8
  %4 = getelementptr inbounds nuw %"struct.std::_Vector_base", ptr %3, i32 0, i32 0
  %5 = getelementptr inbounds nuw %"struct.std::_Vector_base<faiss::nndescent::Neighbor, std::allocator<faiss::nndescent::Neighbor>>::_Vector_impl_data", ptr %4, i32 0, i32 1
  %6 = load ptr, ptr %5, align 8, !tbaa !43
  %7 = getelementptr inbounds nuw %"struct.std::_Vector_base", ptr %3, i32 0, i32 0
  %8 = getelementptr inbounds nuw %"struct.std::_Vector_base<faiss::nndescent::Neighbor, std::allocator<faiss::nndescent::Neighbor>>::_Vector_impl_data", ptr %7, i32 0, i32 0
  %9 = load ptr, ptr %8, align 8, !tbaa !42
  %10 = ptrtoint ptr %6 to i64
  %11 = ptrtoint ptr %9 to i64
  %12 = sub i64 %10, %11
  %13 = sdiv exact i64 %12, 12
  ret i64 %13
}

; Function Attrs: mustprogress nounwind uwtable
define linkonce_odr noundef nonnull align 8 dereferenceable(24) ptr @_ZNSt6vectorIS_IiSaIiEESaIS1_EEixEm(ptr noundef nonnull align 8 dereferenceable(24) %0, i64 noundef %1) #1 comdat align 2 {
  %3 = alloca ptr, align 8
  %4 = alloca i64, align 8
  store ptr %0, ptr %3, align 8, !tbaa !210
  store i64 %1, ptr %4, align 8, !tbaa !33
  %5 = load ptr, ptr %3, align 8
  %6 = getelementptr inbounds nuw %"struct.std::_Vector_base.13", ptr %5, i32 0, i32 0
  %7 = getelementptr inbounds nuw %"struct.std::_Vector_base<std::vector<int>, std::allocator<std::vector<int>>>::_Vector_impl_data", ptr %6, i32 0, i32 0
  %8 = load ptr, ptr %7, align 8, !tbaa !217
  %9 = load i64, ptr %4, align 8, !tbaa !33
  %10 = getelementptr inbounds nuw %"class.std::vector.0", ptr %8, i64 %9
  ret ptr %10
}

; Function Attrs: mustprogress nounwind uwtable
define linkonce_odr noundef nonnull align 8 dereferenceable(168) ptr @_ZNSt6vectorIN5faiss9nndescent5NhoodESaIS2_EEixEm(ptr noundef nonnull align 8 dereferenceable(24) %0, i64 noundef %1) #1 comdat align 2 {
  %3 = alloca ptr, align 8
  %4 = alloca i64, align 8
  store ptr %0, ptr %3, align 8, !tbaa !160
  store i64 %1, ptr %4, align 8, !tbaa !33
  %5 = load ptr, ptr %3, align 8
  %6 = getelementptr inbounds nuw %"struct.std::_Vector_base.8", ptr %5, i32 0, i32 0
  %7 = getelementptr inbounds nuw %"struct.std::_Vector_base<faiss::nndescent::Nhood, std::allocator<faiss::nndescent::Nhood>>::_Vector_impl_data", ptr %6, i32 0, i32 0
  %8 = load ptr, ptr %7, align 8, !tbaa !170
  %9 = load i64, ptr %4, align 8, !tbaa !33
  %10 = getelementptr inbounds nuw %"struct.faiss::nndescent::Nhood", ptr %8, i64 %9
  ret ptr %10
}

; Function Attrs: mustprogress nounwind uwtable
define linkonce_odr noundef nonnull align 4 dereferenceable(4) ptr @_ZNSt6vectorIiSaIiEEixEm(ptr noundef nonnull align 8 dereferenceable(24) %0, i64 noundef %1) #1 comdat align 2 {
  %3 = alloca ptr, align 8
  %4 = alloca i64, align 8
  store ptr %0, ptr %3, align 8, !tbaa !31
  store i64 %1, ptr %4, align 8, !tbaa !33
  %5 = load ptr, ptr %3, align 8
  %6 = getelementptr inbounds nuw %"struct.std::_Vector_base.1", ptr %5, i32 0, i32 0
  %7 = getelementptr inbounds nuw %"struct.std::_Vector_base<int, std::allocator<int>>::_Vector_impl_data", ptr %6, i32 0, i32 0
  %8 = load ptr, ptr %7, align 8, !tbaa !35
  %9 = load i64, ptr %4, align 8, !tbaa !33
  %10 = getelementptr inbounds nuw i32, ptr %8, i64 %9
  ret ptr %10
}

; Function Attrs: mustprogress nounwind uwtable
define linkonce_odr noundef i64 @_ZNKSt6vectorIiSaIiEE4sizeEv(ptr noundef nonnull align 8 dereferenceable(24) %0) #1 comdat align 2 {
  %2 = alloca ptr, align 8
  store ptr %0, ptr %2, align 8, !tbaa !31
  %3 = load ptr, ptr %2, align 8
  %4 = getelementptr inbounds nuw %"struct.std::_Vector_base.1", ptr %3, i32 0, i32 0
  %5 = getelementptr inbounds nuw %"struct.std::_Vector_base<int, std::allocator<int>>::_Vector_impl_data", ptr %4, i32 0, i32 1
  %6 = load ptr, ptr %5, align 8, !tbaa !41
  %7 = getelementptr inbounds nuw %"struct.std::_Vector_base.1", ptr %3, i32 0, i32 0
  %8 = getelementptr inbounds nuw %"struct.std::_Vector_base<int, std::allocator<int>>::_Vector_impl_data", ptr %7, i32 0, i32 0
  %9 = load ptr, ptr %8, align 8, !tbaa !35
  %10 = ptrtoint ptr %6 to i64
  %11 = ptrtoint ptr %9 to i64
  %12 = sub i64 %10, %11
  %13 = sdiv exact i64 %12, 4
  ret i64 %13
}

; Function Attrs: mustprogress nounwind uwtable
define noundef float @_ZN5faiss9NNDescent11eval_recallERSt6vectorIiSaIiEERS1_IS3_SaIS3_EE(ptr noundef nonnull align 8 dereferenceable(88) %0, ptr noundef nonnull align 8 dereferenceable(24) %1, ptr noundef nonnull align 8 dereferenceable(24) %2) #1 align 2 {
  %4 = alloca ptr, align 8
  %5 = alloca ptr, align 8
  %6 = alloca ptr, align 8
  %7 = alloca float, align 4
  %8 = alloca i64, align 8
  %9 = alloca i32, align 4
  %10 = alloca float, align 4
  %11 = alloca ptr, align 8
  %12 = alloca ptr, align 8
  %13 = alloca i64, align 8
  %14 = alloca i64, align 8
  store ptr %0, ptr %4, align 8, !tbaa !143
  store ptr %1, ptr %5, align 8, !tbaa !31
  store ptr %2, ptr %6, align 8, !tbaa !210
  %15 = load ptr, ptr %4, align 8
  call void @llvm.lifetime.start.p0(i64 4, ptr %7) #16
  store float 0.000000e+00, ptr %7, align 4, !tbaa !96
  call void @llvm.lifetime.start.p0(i64 8, ptr %8) #16
  store i64 0, ptr %8, align 8, !tbaa !33
  br label %16

16:                                               ; preds = %78, %3
  %17 = load i64, ptr %8, align 8, !tbaa !33
  %18 = load ptr, ptr %5, align 8, !tbaa !31
  %19 = call noundef i64 @_ZNKSt6vectorIiSaIiEE4sizeEv(ptr noundef nonnull align 8 dereferenceable(24) %18) #16
  %20 = icmp ult i64 %17, %19
  br i1 %20, label %22, label %21

21:                                               ; preds = %16
  store i32 2, ptr %9, align 4
  call void @llvm.lifetime.end.p0(i64 8, ptr %8) #16
  br label %81

22:                                               ; preds = %16
  call void @llvm.lifetime.start.p0(i64 4, ptr %10) #16
  store float 0.000000e+00, ptr %10, align 4, !tbaa !96
  call void @llvm.lifetime.start.p0(i64 8, ptr %11) #16
  %23 = getelementptr inbounds nuw %"struct.faiss::NNDescent", ptr %15, i32 0, i32 10
  %24 = load ptr, ptr %5, align 8, !tbaa !31
  %25 = load i64, ptr %8, align 8, !tbaa !33
  %26 = call noundef nonnull align 4 dereferenceable(4) ptr @_ZNSt6vectorIiSaIiEEixEm(ptr noundef nonnull align 8 dereferenceable(24) %24, i64 noundef %25) #16
  %27 = load i32, ptr %26, align 4, !tbaa !9
  %28 = sext i32 %27 to i64
  %29 = call noundef nonnull align 8 dereferenceable(168) ptr @_ZNSt6vectorIN5faiss9nndescent5NhoodESaIS2_EEixEm(ptr noundef nonnull align 8 dereferenceable(24) %23, i64 noundef %28) #16
  %30 = getelementptr inbounds nuw %"struct.faiss::nndescent::Nhood", ptr %29, i32 0, i32 1
  store ptr %30, ptr %11, align 8, !tbaa !29
  call void @llvm.lifetime.start.p0(i64 8, ptr %12) #16
  %31 = load ptr, ptr %6, align 8, !tbaa !210
  %32 = load i64, ptr %8, align 8, !tbaa !33
  %33 = call noundef nonnull align 8 dereferenceable(24) ptr @_ZNSt6vectorIS_IiSaIiEESaIS1_EEixEm(ptr noundef nonnull align 8 dereferenceable(24) %31, i64 noundef %32) #16
  store ptr %33, ptr %12, align 8, !tbaa !31
  call void @llvm.lifetime.start.p0(i64 8, ptr %13) #16
  store i64 0, ptr %13, align 8, !tbaa !33
  br label %34

34:                                               ; preds = %67, %22
  %35 = load i64, ptr %13, align 8, !tbaa !33
  %36 = load ptr, ptr %11, align 8, !tbaa !29
  %37 = call noundef i64 @_ZNKSt6vectorIN5faiss9nndescent8NeighborESaIS2_EE4sizeEv(ptr noundef nonnull align 8 dereferenceable(24) %36) #16
  %38 = icmp ult i64 %35, %37
  br i1 %38, label %40, label %39

39:                                               ; preds = %34
  store i32 5, ptr %9, align 4
  call void @llvm.lifetime.end.p0(i64 8, ptr %13) #16
  br label %70

40:                                               ; preds = %34
  call void @llvm.lifetime.start.p0(i64 8, ptr %14) #16
  store i64 0, ptr %14, align 8, !tbaa !33
  br label %41

41:                                               ; preds = %62, %40
  %42 = load i64, ptr %14, align 8, !tbaa !33
  %43 = load ptr, ptr %12, align 8, !tbaa !31
  %44 = call noundef i64 @_ZNKSt6vectorIiSaIiEE4sizeEv(ptr noundef nonnull align 8 dereferenceable(24) %43) #16
  %45 = icmp ult i64 %42, %44
  br i1 %45, label %47, label %46

46:                                               ; preds = %41
  store i32 8, ptr %9, align 4
  br label %65

47:                                               ; preds = %41
  %48 = load ptr, ptr %11, align 8, !tbaa !29
  %49 = load i64, ptr %13, align 8, !tbaa !33
  %50 = call noundef nonnull align 4 dereferenceable(9) ptr @_ZNSt6vectorIN5faiss9nndescent8NeighborESaIS2_EEixEm(ptr noundef nonnull align 8 dereferenceable(24) %48, i64 noundef %49) #16
  %51 = getelementptr inbounds nuw %"struct.faiss::nndescent::Neighbor", ptr %50, i32 0, i32 0
  %52 = load i32, ptr %51, align 4, !tbaa !100
  %53 = load ptr, ptr %12, align 8, !tbaa !31
  %54 = load i64, ptr %14, align 8, !tbaa !33
  %55 = call noundef nonnull align 4 dereferenceable(4) ptr @_ZNSt6vectorIiSaIiEEixEm(ptr noundef nonnull align 8 dereferenceable(24) %53, i64 noundef %54) #16
  %56 = load i32, ptr %55, align 4, !tbaa !9
  %57 = icmp eq i32 %52, %56
  br i1 %57, label %58, label %61

58:                                               ; preds = %47
  %59 = load float, ptr %10, align 4, !tbaa !96
  %60 = fadd float %59, 1.000000e+00
  store float %60, ptr %10, align 4, !tbaa !96
  store i32 8, ptr %9, align 4
  br label %65

61:                                               ; preds = %47
  br label %62

62:                                               ; preds = %61
  %63 = load i64, ptr %14, align 8, !tbaa !33
  %64 = add i64 %63, 1
  store i64 %64, ptr %14, align 8, !tbaa !33
  br label %41, !llvm.loop !214

65:                                               ; preds = %58, %46
  call void @llvm.lifetime.end.p0(i64 8, ptr %14) #16
  br label %66

66:                                               ; preds = %65
  br label %67

67:                                               ; preds = %66
  %68 = load i64, ptr %13, align 8, !tbaa !33
  %69 = add i64 %68, 1
  store i64 %69, ptr %13, align 8, !tbaa !33
  br label %34, !llvm.loop !215

70:                                               ; preds = %39
  %71 = load float, ptr %10, align 4, !tbaa !96
  %72 = load ptr, ptr %12, align 8, !tbaa !31
  %73 = call noundef i64 @_ZNKSt6vectorIiSaIiEE4sizeEv(ptr noundef nonnull align 8 dereferenceable(24) %72) #16
  %74 = uitofp i64 %73 to float
  %75 = fdiv float %71, %74
  %76 = load float, ptr %7, align 4, !tbaa !96
  %77 = fadd float %76, %75
  store float %77, ptr %7, align 4, !tbaa !96
  call void @llvm.lifetime.end.p0(i64 8, ptr %12) #16
  call void @llvm.lifetime.end.p0(i64 8, ptr %11) #16
  call void @llvm.lifetime.end.p0(i64 4, ptr %10) #16
  br label %78

78:                                               ; preds = %70
  %79 = load i64, ptr %8, align 8, !tbaa !33
  %80 = add i64 %79, 1
  store i64 %80, ptr %8, align 8, !tbaa !33
  br label %16, !llvm.loop !216

81:                                               ; preds = %21
  %82 = load float, ptr %7, align 4, !tbaa !96
  %83 = load ptr, ptr %5, align 8, !tbaa !31
  %84 = call noundef i64 @_ZNKSt6vectorIiSaIiEE4sizeEv(ptr noundef nonnull align 8 dereferenceable(24) %83) #16
  %85 = uitofp i64 %84 to float
  %86 = fdiv float %82, %85
  store i32 1, ptr %9, align 4
  call void @llvm.lifetime.end.p0(i64 4, ptr %7) #16
  ret float %86
}