; Function Attrs: mustprogress nofree norecurse nosync nounwind willreturn memory(read, inaccessiblemem: none) uwtable
define noundef float @_ZN5faiss9NNDescent11eval_recallERSt6vectorIiSaIiEERS1_IS3_SaIS3_EE(ptr noundef nonnull readonly align 8 captures(none) dereferenceable(88) %0, ptr noundef nonnull readonly align 8 captures(none) dereferenceable(24) %1, ptr noundef nonnull readonly align 8 captures(none) dereferenceable(24) %2) local_unnamed_addr #19 align 2 {
  %4 = getelementptr inbounds nuw i8, ptr %1, i64 8
  %5 = load ptr, ptr %4, align 8, !tbaa !23
  %6 = load ptr, ptr %1, align 8, !tbaa !22
  %7 = ptrtoint ptr %5 to i64
  %8 = ptrtoint ptr %6 to i64
  %9 = sub i64 %7, %8
  %10 = ashr exact i64 %9, 2
  %.not = icmp eq ptr %5, %6
  br i1 %.not, label %._crit_edge34, label %.lr.ph

.lr.ph:                                           ; preds = %3
  %11 = getelementptr inbounds nuw i8, ptr %0, i64 40
  %12 = load ptr, ptr %11, align 8, !tbaa !82
  %13 = load ptr, ptr %2, align 8, !tbaa !110
  %umax41 = tail call i64 @llvm.umax.i64(i64 %10, i64 1)
  br label %16

._crit_edge34:                                    ; preds = %._crit_edge, %3
  %.024.lcssa = phi float [ 0.000000e+00, %3 ], [ %46, %._crit_edge ]
  %14 = uitofp i64 %10 to float
  %15 = fdiv float %.024.lcssa, %14
  ret float %15

16:                                               ; preds = %.lr.ph, %._crit_edge
  %.02432 = phi float [ 0.000000e+00, %.lr.ph ], [ %46, %._crit_edge ]
  %.02531 = phi i64 [ 0, %.lr.ph ], [ %47, %._crit_edge ]
  %17 = getelementptr inbounds nuw i32, ptr %6, i64 %.02531
  %18 = load i32, ptr %17, align 4, !tbaa !27
  %19 = sext i32 %18 to i64
  %20 = getelementptr inbounds nuw %"struct.faiss::nndescent::Nhood", ptr %12, i64 %19, i32 1
  %21 = getelementptr inbounds nuw %"class.std::vector.0", ptr %13, i64 %.02531
  %22 = getelementptr inbounds nuw i8, ptr %20, i64 8
  %23 = load ptr, ptr %22, align 8, !tbaa !37
  %24 = load ptr, ptr %20, align 8, !tbaa !25
  %25 = ptrtoint ptr %23 to i64
  %26 = ptrtoint ptr %24 to i64
  %27 = sub i64 %25, %26
  %28 = sdiv exact i64 %27, 12
  %.not36 = icmp eq ptr %23, %24
  %.phi.trans.insert = getelementptr inbounds nuw i8, ptr %21, i64 8
  %.pre = load ptr, ptr %.phi.trans.insert, align 8, !tbaa !23
  %.pre43 = load ptr, ptr %21, align 8, !tbaa !22
  %.pre44 = ptrtoint ptr %.pre to i64
  %.pre45 = ptrtoint ptr %.pre43 to i64
  br i1 %.not36, label %._crit_edge, label %.preheader.lr.ph

.preheader.lr.ph:                                 ; preds = %16
  %.not37 = icmp eq ptr %.pre, %.pre43
  br i1 %.not37, label %._crit_edge, label %.preheader.us.preheader

.preheader.us.preheader:                          ; preds = %.preheader.lr.ph
  %29 = sub i64 %.pre44, %.pre45
  %30 = ashr exact i64 %29, 2
  %umax = tail call i64 @llvm.umax.i64(i64 %30, i64 1)
  %umax39 = tail call i64 @llvm.umax.i64(i64 %28, i64 1)
  br label %.preheader.us

.preheader.us:                                    ; preds = %.preheader.us.preheader, %..loopexit_crit_edge.us
  %.02329.us = phi i64 [ %41, %..loopexit_crit_edge.us ], [ 0, %.preheader.us.preheader ]
  %.02628.us = phi float [ %.1.us, %..loopexit_crit_edge.us ], [ 0.000000e+00, %.preheader.us.preheader ]
  %31 = getelementptr inbounds nuw %"struct.faiss::nndescent::Neighbor", ptr %24, i64 %.02329.us
  %32 = load i32, ptr %31, align 4, !tbaa !44
  br label %35

33:                                               ; preds = %35
  %34 = add nuw i64 %.027.us, 1
  %exitcond.not = icmp eq i64 %34, %umax
  br i1 %exitcond.not, label %..loopexit_crit_edge.us, label %35, !llvm.loop !115

35:                                               ; preds = %.preheader.us, %33
  %.027.us = phi i64 [ 0, %.preheader.us ], [ %34, %33 ]
  %36 = getelementptr inbounds nuw i32, ptr %.pre43, i64 %.027.us
  %37 = load i32, ptr %36, align 4, !tbaa !27
  %38 = icmp eq i32 %32, %37
  br i1 %38, label %39, label %33

39:                                               ; preds = %35
  %40 = fadd float %.02628.us, 1.000000e+00
  br label %..loopexit_crit_edge.us

..loopexit_crit_edge.us:                          ; preds = %33, %39
  %.1.us = phi float [ %40, %39 ], [ %.02628.us, %33 ]
  %41 = add nuw i64 %.02329.us, 1
  %exitcond40.not = icmp eq i64 %41, %umax39
  br i1 %exitcond40.not, label %._crit_edge, label %.preheader.us, !llvm.loop !116

._crit_edge:                                      ; preds = %..loopexit_crit_edge.us, %16, %.preheader.lr.ph
  %.pre-phi46 = phi i64 [ %.pre44, %.preheader.lr.ph ], [ %.pre45, %16 ], [ %.pre45, %..loopexit_crit_edge.us ]
  %.026.lcssa = phi float [ 0.000000e+00, %.preheader.lr.ph ], [ 0.000000e+00, %16 ], [ %.1.us, %..loopexit_crit_edge.us ]
  %42 = sub i64 %.pre44, %.pre-phi46
  %43 = ashr exact i64 %42, 2
  %44 = uitofp i64 %43 to float
  %45 = fdiv float %.026.lcssa, %44
  %46 = fadd float %.02432, %45
  %47 = add nuw i64 %.02531, 1
  %exitcond42.not = icmp eq i64 %47, %umax41
  br i1 %exitcond42.not, label %._crit_edge34, label %16, !llvm.loop !117
}